target datalayout = "e-m:e-p270:32:32-p271:32:32-p272:64:64-i64:64-i128:128-f80:128-n8:16:32:64-S128"
target triple = "x86_64-pc-linux-gnu"

; Function Attrs: nounwind uwtable
define internal zeroext i1 @HIDAPI_DriverXbox360_IsSupportedDevice(ptr noundef %0, ptr noundef %1, i32 noundef %2, i16 noundef zeroext %3, i16 noundef zeroext %4, i16 noundef zeroext %5, i32 noundef %6, i32 noundef %7, i32 noundef %8, i32 noundef %9) #0 {
  %11 = alloca i1, align 1
  %12 = alloca ptr, align 8
  %13 = alloca ptr, align 8
  %14 = alloca i32, align 4
  %15 = alloca i16, align 2
  %16 = alloca i16, align 2
  %17 = alloca i16, align 2
  %18 = alloca i32, align 4
  %19 = alloca i32, align 4
  %20 = alloca i32, align 4
  %21 = alloca i32, align 4
  %22 = alloca i32, align 4
  %23 = alloca i32, align 4
  store ptr %0, ptr %12, align 8
  store ptr %1, ptr %13, align 8
  store i32 %2, ptr %14, align 4
  store i16 %3, ptr %15, align 2
  store i16 %4, ptr %16, align 2
  store i16 %5, ptr %17, align 2
  store i32 %6, ptr %18, align 4
  store i32 %7, ptr %19, align 4
  store i32 %8, ptr %20, align 4
  store i32 %9, ptr %21, align 4
  call void @llvm.lifetime.start.p0(i64 4, ptr %22) #6
  store i32 129, ptr %22, align 4
  %24 = load i16, ptr %15, align 2
  %25 = zext i16 %24 to i32
  %26 = icmp eq i32 %25, 39046
  br i1 %26, label %27, label %32

27:                                               ; preds = %10
  %28 = load i16, ptr %16, align 2
  %29 = zext i16 %28 to i32
  %30 = icmp eq i32 %29, 36
  br i1 %30, label %31, label %32

31:                                               ; preds = %27
  store i1 true, ptr %11, align 1
  store i32 1, ptr %23, align 4
  br label %63

32:                                               ; preds = %27, %10
  %33 = load i16, ptr %15, align 2
  %34 = zext i16 %33 to i32
  %35 = icmp eq i32 %34, 2389
  br i1 %35, label %36, label %37

36:                                               ; preds = %32
  store i1 false, ptr %11, align 1
  store i32 1, ptr %23, align 4
  br label %63

37:                                               ; preds = %32
  %38 = load i16, ptr %15, align 2
  %39 = zext i16 %38 to i32
  %40 = icmp eq i32 %39, 1118
  br i1 %40, label %41, label %49

41:                                               ; preds = %37
  %42 = load i16, ptr %16, align 2
  %43 = zext i16 %42 to i32
  %44 = icmp eq i32 %43, 657
  br i1 %44, label %55, label %45

45:                                               ; preds = %41
  %46 = load i16, ptr %16, align 2
  %47 = zext i16 %46 to i32
  %48 = icmp eq i32 %47, 1817
  br i1 %48, label %55, label %49

49:                                               ; preds = %45, %37
  %50 = load i32, ptr %14, align 4
  %51 = icmp eq i32 %50, 2
  br i1 %51, label %52, label %56

52:                                               ; preds = %49
  %53 = load i32, ptr %21, align 4
  %54 = icmp eq i32 %53, 129
  br i1 %54, label %55, label %56

55:                                               ; preds = %52, %45, %41
  store i1 false, ptr %11, align 1
  store i32 1, ptr %23, align 4
  br label %63

56:                                               ; preds = %52, %49
  %57 = load i32, ptr %18, align 4
  %58 = icmp sgt i32 %57, 0
  br i1 %58, label %59, label %60

59:                                               ; preds = %56
  store i1 false, ptr %11, align 1
  store i32 1, ptr %23, align 4
  br label %63

60:                                               ; preds = %56
  %61 = load i32, ptr %14, align 4
  %62 = icmp eq i32 %61, 2
  store i1 %62, ptr %11, align 1
  store i32 1, ptr %23, align 4
  br label %63

63:                                               ; preds = %60, %59, %55, %36, %31
  call void @llvm.lifetime.end.p0(i64 4, ptr %22) #6
  %64 = load i1, ptr %11, align 1
  ret i1 %64
}