; Function Attrs: mustprogress nofree norecurse nosync nounwind willreturn memory(none) uwtable
define internal noundef zeroext i1 @HIDAPI_DriverXbox360_IsSupportedDevice(ptr readnone captures(none) %0, ptr readnone captures(none) %1, i32 noundef %2, i16 noundef zeroext %3, i16 noundef zeroext %4, i16 zeroext %5, i32 noundef %6, i32 %7, i32 %8, i32 noundef %9) #1 {
  %11 = icmp eq i16 %3, -26490
  %12 = icmp eq i16 %4, 36
  %or.cond = and i1 %11, %12
  br i1 %or.cond, label %20, label %13

13:                                               ; preds = %10
  switch i16 %3, label %15 [
    i16 2389, label %20
    i16 1118, label %14
  ]

14:                                               ; preds = %13
  switch i16 %4, label %15 [
    i16 1817, label %20
    i16 657, label %20
  ]

15:                                               ; preds = %14, %13
  %16 = icmp eq i32 %2, 2
  %17 = icmp eq i32 %9, 129
  %or.cond7 = and i1 %16, %17
  br i1 %or.cond7, label %20, label %18

18:                                               ; preds = %15
  %19 = icmp slt i32 %6, 1
  %. = and i1 %16, %19
  br label %20

20:                                               ; preds = %18, %15, %14, %14, %13, %10
  %.0 = phi i1 [ true, %10 ], [ false, %13 ], [ false, %14 ], [ false, %14 ], [ false, %15 ], [ %., %18 ]
  ret i1 %.0
}